target datalayout = "e-m:e-p270:32:32-p271:32:32-p272:64:64-i64:64-i128:128-f80:128-n8:16:32:64-S128"
target triple = "x86_64-pc-linux-gnu"

%struct.jpeg_compress_struct = type { ptr, ptr, ptr, ptr, i32, i32, ptr, i32, i32, i32, i32, double, i32, i32, i32, ptr, [4 x ptr], [4 x ptr], [4 x ptr], [16 x i8], [16 x i8], [16 x i8], i32, ptr, i32, i32, i32, i32, i32, i32, i32, i32, i32, i8, i8, i8, i16, i16, i32, i32, i32, i32, i32, i32, i32, [4 x ptr], i32, i32, i32, [10 x i32], i32, i32, i32, i32, ptr, ptr, ptr, ptr, ptr, ptr, ptr, ptr, ptr, ptr, i32 }
%struct.jpeg_error_mgr = type { ptr, ptr, ptr, ptr, ptr, i32, %union.anon, i32, i64, ptr, i32, ptr, i32, i32 }
%union.anon = type { [8 x i32], [48 x i8] }
%struct.jpeg_comp_master = type { ptr, ptr, ptr, i32, i32, i32 }
%struct.jpeg_progress_mgr = type { ptr, i64, i64, i32, i32 }
%struct.jpeg_c_main_controller = type { ptr, ptr, ptr, ptr }

; Function Attrs: nounwind uwtable
define i32 @jpeg_write_scanlines(ptr noundef %0, ptr noundef %1, i32 noundef %2) #0 {
  %4 = alloca ptr, align 8
  %5 = alloca ptr, align 8
  %6 = alloca i32, align 4
  %7 = alloca i32, align 4
  %8 = alloca i32, align 4
  store ptr %0, ptr %4, align 8, !tbaa !3
  store ptr %1, ptr %5, align 8, !tbaa !44
  store i32 %2, ptr %6, align 4, !tbaa !8
  call void @llvm.lifetime.start.p0(i64 4, ptr %7) #3
  call void @llvm.lifetime.start.p0(i64 4, ptr %8) #3
  %9 = load ptr, ptr %4, align 8, !tbaa !3
  %10 = getelementptr inbounds nuw %struct.jpeg_compress_struct, ptr %9, i32 0, i32 54
  %11 = load ptr, ptr %10, align 8, !tbaa !39
  %12 = getelementptr inbounds nuw %struct.jpeg_comp_master, ptr %11, i32 0, i32 5
  %13 = load i32, ptr %12, align 8, !tbaa !45
  %14 = icmp ne i32 %13, 0
  br i1 %14, label %15, label %45

15:                                               ; preds = %3
  %16 = load ptr, ptr %4, align 8, !tbaa !3
  %17 = getelementptr inbounds nuw %struct.jpeg_compress_struct, ptr %16, i32 0, i32 12
  %18 = load i32, ptr %17, align 8, !tbaa !46
  %19 = icmp sgt i32 %18, 8
  br i1 %19, label %25, label %20

20:                                               ; preds = %15
  %21 = load ptr, ptr %4, align 8, !tbaa !3
  %22 = getelementptr inbounds nuw %struct.jpeg_compress_struct, ptr %21, i32 0, i32 12
  %23 = load i32, ptr %22, align 8, !tbaa !46
  %24 = icmp slt i32 %23, 2
  br i1 %24, label %25, label %44

25:                                               ; preds = %20, %15
  %26 = load ptr, ptr %4, align 8, !tbaa !3
  %27 = getelementptr inbounds nuw %struct.jpeg_compress_struct, ptr %26, i32 0, i32 0
  %28 = load ptr, ptr %27, align 8, !tbaa !27
  %29 = getelementptr inbounds nuw %struct.jpeg_error_mgr, ptr %28, i32 0, i32 5
  store i32 15, ptr %29, align 8, !tbaa !28
  %30 = load ptr, ptr %4, align 8, !tbaa !3
  %31 = getelementptr inbounds nuw %struct.jpeg_compress_struct, ptr %30, i32 0, i32 12
  %32 = load i32, ptr %31, align 8, !tbaa !46
  %33 = load ptr, ptr %4, align 8, !tbaa !3
  %34 = getelementptr inbounds nuw %struct.jpeg_compress_struct, ptr %33, i32 0, i32 0
  %35 = load ptr, ptr %34, align 8, !tbaa !27
  %36 = getelementptr inbounds nuw %struct.jpeg_error_mgr, ptr %35, i32 0, i32 6
  %37 = getelementptr inbounds [8 x i32], ptr %36, i64 0, i64 0
  store i32 %32, ptr %37, align 4, !tbaa !32
  %38 = load ptr, ptr %4, align 8, !tbaa !3
  %39 = getelementptr inbounds nuw %struct.jpeg_compress_struct, ptr %38, i32 0, i32 0
  %40 = load ptr, ptr %39, align 8, !tbaa !27
  %41 = getelementptr inbounds nuw %struct.jpeg_error_mgr, ptr %40, i32 0, i32 0
  %42 = load ptr, ptr %41, align 8, !tbaa !33
  %43 = load ptr, ptr %4, align 8, !tbaa !3
  call void %42(ptr noundef %43)
  br label %44

44:                                               ; preds = %25, %20
  br label %70

45:                                               ; preds = %3
  %46 = load ptr, ptr %4, align 8, !tbaa !3
  %47 = getelementptr inbounds nuw %struct.jpeg_compress_struct, ptr %46, i32 0, i32 12
  %48 = load i32, ptr %47, align 8, !tbaa !46
  %49 = icmp ne i32 %48, 8
  br i1 %49, label %50, label %69

50:                                               ; preds = %45
  %51 = load ptr, ptr %4, align 8, !tbaa !3
  %52 = getelementptr inbounds nuw %struct.jpeg_compress_struct, ptr %51, i32 0, i32 0
  %53 = load ptr, ptr %52, align 8, !tbaa !27
  %54 = getelementptr inbounds nuw %struct.jpeg_error_mgr, ptr %53, i32 0, i32 5
  store i32 15, ptr %54, align 8, !tbaa !28
  %55 = load ptr, ptr %4, align 8, !tbaa !3
  %56 = getelementptr inbounds nuw %struct.jpeg_compress_struct, ptr %55, i32 0, i32 12
  %57 = load i32, ptr %56, align 8, !tbaa !46
  %58 = load ptr, ptr %4, align 8, !tbaa !3
  %59 = getelementptr inbounds nuw %struct.jpeg_compress_struct, ptr %58, i32 0, i32 0
  %60 = load ptr, ptr %59, align 8, !tbaa !27
  %61 = getelementptr inbounds nuw %struct.jpeg_error_mgr, ptr %60, i32 0, i32 6
  %62 = getelementptr inbounds [8 x i32], ptr %61, i64 0, i64 0
  store i32 %57, ptr %62, align 4, !tbaa !32
  %63 = load ptr, ptr %4, align 8, !tbaa !3
  %64 = getelementptr inbounds nuw %struct.jpeg_compress_struct, ptr %63, i32 0, i32 0
  %65 = load ptr, ptr %64, align 8, !tbaa !27
  %66 = getelementptr inbounds nuw %struct.jpeg_error_mgr, ptr %65, i32 0, i32 0
  %67 = load ptr, ptr %66, align 8, !tbaa !33
  %68 = load ptr, ptr %4, align 8, !tbaa !3
  call void %67(ptr noundef %68)
  br label %69

69:                                               ; preds = %50, %45
  br label %70

70:                                               ; preds = %69, %44
  %71 = load ptr, ptr %4, align 8, !tbaa !3
  %72 = getelementptr inbounds nuw %struct.jpeg_compress_struct, ptr %71, i32 0, i32 5
  %73 = load i32, ptr %72, align 4, !tbaa !10
  %74 = icmp ne i32 %73, 101
  br i1 %74, label %75, label %94

75:                                               ; preds = %70
  %76 = load ptr, ptr %4, align 8, !tbaa !3
  %77 = getelementptr inbounds nuw %struct.jpeg_compress_struct, ptr %76, i32 0, i32 0
  %78 = load ptr, ptr %77, align 8, !tbaa !27
  %79 = getelementptr inbounds nuw %struct.jpeg_error_mgr, ptr %78, i32 0, i32 5
  store i32 20, ptr %79, align 8, !tbaa !28
  %80 = load ptr, ptr %4, align 8, !tbaa !3
  %81 = getelementptr inbounds nuw %struct.jpeg_compress_struct, ptr %80, i32 0, i32 5
  %82 = load i32, ptr %81, align 4, !tbaa !10
  %83 = load ptr, ptr %4, align 8, !tbaa !3
  %84 = getelementptr inbounds nuw %struct.jpeg_compress_struct, ptr %83, i32 0, i32 0
  %85 = load ptr, ptr %84, align 8, !tbaa !27
  %86 = getelementptr inbounds nuw %struct.jpeg_error_mgr, ptr %85, i32 0, i32 6
  %87 = getelementptr inbounds [8 x i32], ptr %86, i64 0, i64 0
  store i32 %82, ptr %87, align 4, !tbaa !32
  %88 = load ptr, ptr %4, align 8, !tbaa !3
  %89 = getelementptr inbounds nuw %struct.jpeg_compress_struct, ptr %88, i32 0, i32 0
  %90 = load ptr, ptr %89, align 8, !tbaa !27
  %91 = getelementptr inbounds nuw %struct.jpeg_error_mgr, ptr %90, i32 0, i32 0
  %92 = load ptr, ptr %91, align 8, !tbaa !33
  %93 = load ptr, ptr %4, align 8, !tbaa !3
  call void %92(ptr noundef %93)
  br label %94

94:                                               ; preds = %75, %70
  %95 = load ptr, ptr %4, align 8, !tbaa !3
  %96 = getelementptr inbounds nuw %struct.jpeg_compress_struct, ptr %95, i32 0, i32 39
  %97 = load i32, ptr %96, align 8, !tbaa !42
  %98 = load ptr, ptr %4, align 8, !tbaa !3
  %99 = getelementptr inbounds nuw %struct.jpeg_compress_struct, ptr %98, i32 0, i32 8
  %100 = load i32, ptr %99, align 4, !tbaa !47
  %101 = icmp uge i32 %97, %100
  br i1 %101, label %102, label %113

102:                                              ; preds = %94
  %103 = load ptr, ptr %4, align 8, !tbaa !3
  %104 = getelementptr inbounds nuw %struct.jpeg_compress_struct, ptr %103, i32 0, i32 0
  %105 = load ptr, ptr %104, align 8, !tbaa !27
  %106 = getelementptr inbounds nuw %struct.jpeg_error_mgr, ptr %105, i32 0, i32 5
  store i32 123, ptr %106, align 8, !tbaa !28
  %107 = load ptr, ptr %4, align 8, !tbaa !3
  %108 = getelementptr inbounds nuw %struct.jpeg_compress_struct, ptr %107, i32 0, i32 0
  %109 = load ptr, ptr %108, align 8, !tbaa !27
  %110 = getelementptr inbounds nuw %struct.jpeg_error_mgr, ptr %109, i32 0, i32 1
  %111 = load ptr, ptr %110, align 8, !tbaa !48
  %112 = load ptr, ptr %4, align 8, !tbaa !3
  call void %111(ptr noundef %112, i32 noundef -1)
  br label %113

113:                                              ; preds = %102, %94
  %114 = load ptr, ptr %4, align 8, !tbaa !3
  %115 = getelementptr inbounds nuw %struct.jpeg_compress_struct, ptr %114, i32 0, i32 2
  %116 = load ptr, ptr %115, align 8, !tbaa !49
  %117 = icmp ne ptr %116, null
  br i1 %117, label %118, label %141

118:                                              ; preds = %113
  %119 = load ptr, ptr %4, align 8, !tbaa !3
  %120 = getelementptr inbounds nuw %struct.jpeg_compress_struct, ptr %119, i32 0, i32 39
  %121 = load i32, ptr %120, align 8, !tbaa !42
  %122 = zext i32 %121 to i64
  %123 = load ptr, ptr %4, align 8, !tbaa !3
  %124 = getelementptr inbounds nuw %struct.jpeg_compress_struct, ptr %123, i32 0, i32 2
  %125 = load ptr, ptr %124, align 8, !tbaa !49
  %126 = getelementptr inbounds nuw %struct.jpeg_progress_mgr, ptr %125, i32 0, i32 1
  store i64 %122, ptr %126, align 8, !tbaa !50
  %127 = load ptr, ptr %4, align 8, !tbaa !3
  %128 = getelementptr inbounds nuw %struct.jpeg_compress_struct, ptr %127, i32 0, i32 8
  %129 = load i32, ptr %128, align 4, !tbaa !47
  %130 = zext i32 %129 to i64
  %131 = load ptr, ptr %4, align 8, !tbaa !3
  %132 = getelementptr inbounds nuw %struct.jpeg_compress_struct, ptr %131, i32 0, i32 2
  %133 = load ptr, ptr %132, align 8, !tbaa !49
  %134 = getelementptr inbounds nuw %struct.jpeg_progress_mgr, ptr %133, i32 0, i32 2
  store i64 %130, ptr %134, align 8, !tbaa !52
  %135 = load ptr, ptr %4, align 8, !tbaa !3
  %136 = getelementptr inbounds nuw %struct.jpeg_compress_struct, ptr %135, i32 0, i32 2
  %137 = load ptr, ptr %136, align 8, !tbaa !49
  %138 = getelementptr inbounds nuw %struct.jpeg_progress_mgr, ptr %137, i32 0, i32 0
  %139 = load ptr, ptr %138, align 8, !tbaa !53
  %140 = load ptr, ptr %4, align 8, !tbaa !3
  call void %139(ptr noundef %140)
  br label %141

141:                                              ; preds = %118, %113
  %142 = load ptr, ptr %4, align 8, !tbaa !3
  %143 = getelementptr inbounds nuw %struct.jpeg_compress_struct, ptr %142, i32 0, i32 54
  %144 = load ptr, ptr %143, align 8, !tbaa !39
  %145 = getelementptr inbounds nuw %struct.jpeg_comp_master, ptr %144, i32 0, i32 3
  %146 = load i32, ptr %145, align 8, !tbaa !54
  %147 = icmp ne i32 %146, 0
  br i1 %147, label %148, label %155

148:                                              ; preds = %141
  %149 = load ptr, ptr %4, align 8, !tbaa !3
  %150 = getelementptr inbounds nuw %struct.jpeg_compress_struct, ptr %149, i32 0, i32 54
  %151 = load ptr, ptr %150, align 8, !tbaa !39
  %152 = getelementptr inbounds nuw %struct.jpeg_comp_master, ptr %151, i32 0, i32 1
  %153 = load ptr, ptr %152, align 8, !tbaa !55
  %154 = load ptr, ptr %4, align 8, !tbaa !3
  call void %153(ptr noundef %154)
  br label %155

155:                                              ; preds = %148, %141
  %156 = load ptr, ptr %4, align 8, !tbaa !3
  %157 = getelementptr inbounds nuw %struct.jpeg_compress_struct, ptr %156, i32 0, i32 8
  %158 = load i32, ptr %157, align 4, !tbaa !47
  %159 = load ptr, ptr %4, align 8, !tbaa !3
  %160 = getelementptr inbounds nuw %struct.jpeg_compress_struct, ptr %159, i32 0, i32 39
  %161 = load i32, ptr %160, align 8, !tbaa !42
  %162 = sub i32 %158, %161
  store i32 %162, ptr %8, align 4, !tbaa !8
  %163 = load i32, ptr %6, align 4, !tbaa !8
  %164 = load i32, ptr %8, align 4, !tbaa !8
  %165 = icmp ugt i32 %163, %164
  br i1 %165, label %166, label %168

166:                                              ; preds = %155
  %167 = load i32, ptr %8, align 4, !tbaa !8
  store i32 %167, ptr %6, align 4, !tbaa !8
  br label %168

168:                                              ; preds = %166, %155
  store i32 0, ptr %7, align 4, !tbaa !8
  %169 = load ptr, ptr %4, align 8, !tbaa !3
  %170 = getelementptr inbounds nuw %struct.jpeg_compress_struct, ptr %169, i32 0, i32 55
  %171 = load ptr, ptr %170, align 8, !tbaa !56
  %172 = getelementptr inbounds nuw %struct.jpeg_c_main_controller, ptr %171, i32 0, i32 1
  %173 = load ptr, ptr %172, align 8, !tbaa !57
  %174 = icmp eq ptr %173, null
  br i1 %174, label %175, label %194

175:                                              ; preds = %168
  %176 = load ptr, ptr %4, align 8, !tbaa !3
  %177 = getelementptr inbounds nuw %struct.jpeg_compress_struct, ptr %176, i32 0, i32 0
  %178 = load ptr, ptr %177, align 8, !tbaa !27
  %179 = getelementptr inbounds nuw %struct.jpeg_error_mgr, ptr %178, i32 0, i32 5
  store i32 15, ptr %179, align 8, !tbaa !28
  %180 = load ptr, ptr %4, align 8, !tbaa !3
  %181 = getelementptr inbounds nuw %struct.jpeg_compress_struct, ptr %180, i32 0, i32 12
  %182 = load i32, ptr %181, align 8, !tbaa !46
  %183 = load ptr, ptr %4, align 8, !tbaa !3
  %184 = getelementptr inbounds nuw %struct.jpeg_compress_struct, ptr %183, i32 0, i32 0
  %185 = load ptr, ptr %184, align 8, !tbaa !27
  %186 = getelementptr inbounds nuw %struct.jpeg_error_mgr, ptr %185, i32 0, i32 6
  %187 = getelementptr inbounds [8 x i32], ptr %186, i64 0, i64 0
  store i32 %182, ptr %187, align 4, !tbaa !32
  %188 = load ptr, ptr %4, align 8, !tbaa !3
  %189 = getelementptr inbounds nuw %struct.jpeg_compress_struct, ptr %188, i32 0, i32 0
  %190 = load ptr, ptr %189, align 8, !tbaa !27
  %191 = getelementptr inbounds nuw %struct.jpeg_error_mgr, ptr %190, i32 0, i32 0
  %192 = load ptr, ptr %191, align 8, !tbaa !33
  %193 = load ptr, ptr %4, align 8, !tbaa !3
  call void %192(ptr noundef %193)
  br label %194

194:                                              ; preds = %175, %168
  %195 = load ptr, ptr %4, align 8, !tbaa !3
  %196 = getelementptr inbounds nuw %struct.jpeg_compress_struct, ptr %195, i32 0, i32 55
  %197 = load ptr, ptr %196, align 8, !tbaa !56
  %198 = getelementptr inbounds nuw %struct.jpeg_c_main_controller, ptr %197, i32 0, i32 1
  %199 = load ptr, ptr %198, align 8, !tbaa !57
  %200 = load ptr, ptr %4, align 8, !tbaa !3
  %201 = load ptr, ptr %5, align 8, !tbaa !44
  %202 = load i32, ptr %6, align 4, !tbaa !8
  call void %199(ptr noundef %200, ptr noundef %201, ptr noundef %7, i32 noundef %202)
  %203 = load i32, ptr %7, align 4, !tbaa !8
  %204 = load ptr, ptr %4, align 8, !tbaa !3
  %205 = getelementptr inbounds nuw %struct.jpeg_compress_struct, ptr %204, i32 0, i32 39
  %206 = load i32, ptr %205, align 8, !tbaa !42
  %207 = add i32 %206, %203
  store i32 %207, ptr %205, align 8, !tbaa !42
  %208 = load i32, ptr %7, align 4, !tbaa !8
  call void @llvm.lifetime.end.p0(i64 4, ptr %8) #3
  call void @llvm.lifetime.end.p0(i64 4, ptr %7) #3
  ret i32 %208
}