; Function Attrs: nounwind uwtable
define i32 @jpeg_write_scanlines(ptr noundef %0, ptr noundef %1, i32 noundef %2) local_unnamed_addr #0 {
  %4 = alloca i32, align 4
  call void @llvm.lifetime.start.p0(i64 4, ptr nonnull %4) #4
  %5 = getelementptr inbounds nuw i8, ptr %0, i64 432
  %6 = load ptr, ptr %5, align 8, !tbaa !36
  %7 = getelementptr inbounds nuw i8, ptr %6, i64 32
  %8 = load i32, ptr %7, align 8, !tbaa !41
  %.not = icmp eq i32 %8, 0
  %9 = getelementptr inbounds nuw i8, ptr %0, i64 72
  %10 = load i32, ptr %9, align 8, !tbaa !42
  br i1 %.not, label %13, label %11

11:                                               ; preds = %3
  %12 = add i32 %10, -9
  %or.cond = icmp ult i32 %12, -7
  br i1 %or.cond, label %.sink.split, label %19

13:                                               ; preds = %3
  %.not54 = icmp eq i32 %10, 8
  br i1 %.not54, label %19, label %.sink.split

.sink.split:                                      ; preds = %13, %11
  %14 = load ptr, ptr %0, align 8, !tbaa !24
  %15 = getelementptr inbounds nuw i8, ptr %14, i64 40
  store i32 15, ptr %15, align 8, !tbaa !25
  %16 = getelementptr inbounds nuw i8, ptr %14, i64 44
  store i32 %10, ptr %16, align 4, !tbaa !29
  %17 = load ptr, ptr %0, align 8, !tbaa !24
  %18 = load ptr, ptr %17, align 8, !tbaa !30
  tail call void %18(ptr noundef nonnull %0) #4
  br label %19

19:                                               ; preds = %.sink.split, %11, %13
  %20 = getelementptr inbounds nuw i8, ptr %0, i64 36
  %21 = load i32, ptr %20, align 4, !tbaa !3
  %.not55 = icmp eq i32 %21, 101
  br i1 %.not55, label %28, label %22

22:                                               ; preds = %19
  %23 = load ptr, ptr %0, align 8, !tbaa !24
  %24 = getelementptr inbounds nuw i8, ptr %23, i64 40
  store i32 20, ptr %24, align 8, !tbaa !25
  %25 = getelementptr inbounds nuw i8, ptr %23, i64 44
  store i32 %21, ptr %25, align 4, !tbaa !29
  %26 = load ptr, ptr %0, align 8, !tbaa !24
  %27 = load ptr, ptr %26, align 8, !tbaa !30
  tail call void %27(ptr noundef nonnull %0) #4
  br label %28

28:                                               ; preds = %22, %19
  %29 = getelementptr inbounds nuw i8, ptr %0, i64 304
  %30 = load i32, ptr %29, align 8, !tbaa !39
  %31 = getelementptr inbounds nuw i8, ptr %0, i64 52
  %32 = load i32, ptr %31, align 4, !tbaa !43
  %.not56 = icmp ult i32 %30, %32
  br i1 %.not56, label %38, label %33

33:                                               ; preds = %28
  %34 = load ptr, ptr %0, align 8, !tbaa !24
  %35 = getelementptr inbounds nuw i8, ptr %34, i64 40
  store i32 123, ptr %35, align 8, !tbaa !25
  %36 = getelementptr inbounds nuw i8, ptr %34, i64 8
  %37 = load ptr, ptr %36, align 8, !tbaa !44
  tail call void %37(ptr noundef nonnull %0, i32 noundef -1) #4
  br label %38

38:                                               ; preds = %33, %28
  %39 = getelementptr inbounds nuw i8, ptr %0, i64 16
  %40 = load ptr, ptr %39, align 8, !tbaa !45
  %.not57 = icmp eq ptr %40, null
  br i1 %.not57, label %49, label %41

41:                                               ; preds = %38
  %42 = load i32, ptr %29, align 8, !tbaa !39
  %43 = zext i32 %42 to i64
  %44 = getelementptr inbounds nuw i8, ptr %40, i64 8
  store i64 %43, ptr %44, align 8, !tbaa !46
  %45 = load i32, ptr %31, align 4, !tbaa !43
  %46 = zext i32 %45 to i64
  %47 = getelementptr inbounds nuw i8, ptr %40, i64 16
  store i64 %46, ptr %47, align 8, !tbaa !48
  %48 = load ptr, ptr %40, align 8, !tbaa !49
  tail call void %48(ptr noundef nonnull %0) #4
  br label %49

49:                                               ; preds = %41, %38
  %50 = load ptr, ptr %5, align 8, !tbaa !36
  %51 = getelementptr inbounds nuw i8, ptr %50, i64 24
  %52 = load i32, ptr %51, align 8, !tbaa !50
  %.not58 = icmp eq i32 %52, 0
  br i1 %.not58, label %56, label %53

53:                                               ; preds = %49
  %54 = getelementptr inbounds nuw i8, ptr %50, i64 8
  %55 = load ptr, ptr %54, align 8, !tbaa !51
  tail call void %55(ptr noundef nonnull %0) #4
  br label %56

56:                                               ; preds = %53, %49
  %57 = load i32, ptr %31, align 4, !tbaa !43
  %58 = load i32, ptr %29, align 8, !tbaa !39
  store i32 0, ptr %4, align 4, !tbaa !52
  %59 = getelementptr inbounds nuw i8, ptr %0, i64 440
  %60 = load ptr, ptr %59, align 8, !tbaa !53
  %61 = getelementptr inbounds nuw i8, ptr %60, i64 8
  %62 = load ptr, ptr %61, align 8, !tbaa !54
  %63 = icmp eq ptr %62, null
  br i1 %63, label %64, label %72

64:                                               ; preds = %56
  %65 = load ptr, ptr %0, align 8, !tbaa !24
  %66 = getelementptr inbounds nuw i8, ptr %65, i64 40
  store i32 15, ptr %66, align 8, !tbaa !25
  %67 = getelementptr inbounds nuw i8, ptr %0, i64 72
  %68 = load i32, ptr %67, align 8, !tbaa !42
  %69 = getelementptr inbounds nuw i8, ptr %65, i64 44
  store i32 %68, ptr %69, align 4, !tbaa !29
  %70 = load ptr, ptr %0, align 8, !tbaa !24
  %71 = load ptr, ptr %70, align 8, !tbaa !30
  tail call void %71(ptr noundef nonnull %0) #4
  %.pre = load ptr, ptr %59, align 8, !tbaa !53
  %.phi.trans.insert = getelementptr inbounds nuw i8, ptr %.pre, i64 8
  %.pre59 = load ptr, ptr %.phi.trans.insert, align 8, !tbaa !54
  br label %72

72:                                               ; preds = %64, %56
  %73 = phi ptr [ %.pre59, %64 ], [ %62, %56 ]
  %74 = sub i32 %57, %58
  %spec.select = tail call i32 @llvm.umin.i32(i32 %2, i32 %74)
  call void %73(ptr noundef nonnull %0, ptr noundef %1, ptr noundef nonnull %4, i32 noundef %spec.select) #4
  %75 = load i32, ptr %4, align 4, !tbaa !52
  %76 = load i32, ptr %29, align 8, !tbaa !39
  %77 = add i32 %76, %75
  store i32 %77, ptr %29, align 8, !tbaa !39
  call void @llvm.lifetime.end.p0(i64 4, ptr nonnull %4) #4
  ret i32 %75
}